ccopy_reg
_reconstructor
p0
(csklearn.pipeline
Pipeline
p1
c__builtin__
object
p2
Ntp3
Rp4
(dp5
S'_sklearn_version'
p6
S'0.18.1'
p7
sS'steps'
p8
(lp9
(S'scaler'
p10
g0
(csklearn.preprocessing.data
MinMaxScaler
p11
g2
Ntp12
Rp13
(dp14
S'copy'
p15
I01
sg6
g7
sS'feature_range'
p16
(I0
I1
tp17
sbtp18
a(S'skb'
p19
g0
(csklearn.feature_selection.univariate_selection
SelectKBest
p20
g2
Ntp21
Rp22
(dp23
S'k'
p24
S'all'
p25
sg6
g7
sS'score_func'
p26
csklearn.feature_selection.univariate_selection
f_classif
p27
sbtp28
a(S'clf'
p29
g0
(csklearn.linear_model.logistic
LogisticRegression
p30
g2
Ntp31
Rp32
(dp33
S'warm_start'
p34
I00
sS'C'
p35
I1000000000
sS'n_jobs'
p36
I1
sS'verbose'
p37
I0
sS'fit_intercept'
p38
I01
sS'max_iter'
p39
I100
sS'class_weight'
p40
S'balanced'
p41
sS'penalty'
p42
S'l2'
p43
sS'multi_class'
p44
S'ovr'
p45
sS'random_state'
p46
Nsg6
g7
sS'dual'
p47
I00
sS'tol'
p48
F0.1
sS'solver'
p49
S'liblinear'
p50
sS'intercept_scaling'
p51
I1
sbtp52
asb.