(lp0
S'poi'
p1
aS'deferred_income'
p2
aS'exercised_stock_options'
p3
aS'total_stock_value'
p4
aS'bonus'
p5
aS'salary'
p6
aS'shared_receipt_with_poi'
p7
aS'expenses'
p8
aS'from_poi_to_this_person'
p9
aS'long_term_incentive'
p10
aS'from_this_person_to_poi'
p11
aS'director_fees'
p12
aS'to_poi_ratio'
p13
aS'from_poi_ratio'
p14
a.